target datalayout = "e-m:e-p270:32:32-p271:32:32-p272:64:64-i64:64-i128:128-f80:128-n8:16:32:64-S128"
target triple = "x86_64-pc-linux-gnu"

%struct.functionsLibMataData = type { ptr, ptr, ptr }

; Function Attrs: nounwind uwtable
define dso_local void @functionFreeLibMetaData(ptr noundef %0) #1 {
  %2 = alloca ptr, align 8
  store ptr %0, ptr %2, align 8, !tbaa !150
  %3 = load ptr, ptr %2, align 8, !tbaa !150
  %4 = getelementptr inbounds nuw %struct.functionsLibMataData, ptr %3, i32 0, i32 2
  %5 = load ptr, ptr %4, align 8, !tbaa !155
  %6 = icmp ne ptr %5, null
  br i1 %6, label %7, label %11

7:                                                ; preds = %1
  %8 = load ptr, ptr %2, align 8, !tbaa !150
  %9 = getelementptr inbounds nuw %struct.functionsLibMataData, ptr %8, i32 0, i32 2
  %10 = load ptr, ptr %9, align 8, !tbaa !155
  call void @sdsfree(ptr noundef %10)
  br label %11

11:                                               ; preds = %7, %1
  %12 = load ptr, ptr %2, align 8, !tbaa !150
  %13 = getelementptr inbounds nuw %struct.functionsLibMataData, ptr %12, i32 0, i32 1
  %14 = load ptr, ptr %13, align 8, !tbaa !153
  %15 = icmp ne ptr %14, null
  br i1 %15, label %16, label %20

16:                                               ; preds = %11
  %17 = load ptr, ptr %2, align 8, !tbaa !150
  %18 = getelementptr inbounds nuw %struct.functionsLibMataData, ptr %17, i32 0, i32 1
  %19 = load ptr, ptr %18, align 8, !tbaa !153
  call void @sdsfree(ptr noundef %19)
  br label %20

20:                                               ; preds = %16, %11
  %21 = load ptr, ptr %2, align 8, !tbaa !150
  %22 = getelementptr inbounds nuw %struct.functionsLibMataData, ptr %21, i32 0, i32 0
  %23 = load ptr, ptr %22, align 8, !tbaa !156
  %24 = icmp ne ptr %23, null
  br i1 %24, label %25, label %29

25:                                               ; preds = %20
  %26 = load ptr, ptr %2, align 8, !tbaa !150
  %27 = getelementptr inbounds nuw %struct.functionsLibMataData, ptr %26, i32 0, i32 0
  %28 = load ptr, ptr %27, align 8, !tbaa !156
  call void @sdsfree(ptr noundef %28)
  br label %29

29:                                               ; preds = %25, %20
  ret void
}