; Function Attrs: nounwind uwtable
define dso_local void @functionFreeLibMetaData(ptr noundef readonly captures(none) %0) local_unnamed_addr #1 {
  %2 = getelementptr inbounds nuw i8, ptr %0, i64 16
  %3 = load ptr, ptr %2, align 8, !tbaa !138
  %.not = icmp eq ptr %3, null
  br i1 %.not, label %5, label %4

4:                                                ; preds = %1
  tail call void @sdsfree(ptr noundef nonnull %3) #12
  br label %5

5:                                                ; preds = %4, %1
  %6 = getelementptr inbounds nuw i8, ptr %0, i64 8
  %7 = load ptr, ptr %6, align 8, !tbaa !136
  %.not8 = icmp eq ptr %7, null
  br i1 %.not8, label %9, label %8

8:                                                ; preds = %5
  tail call void @sdsfree(ptr noundef nonnull %7) #12
  br label %9

9:                                                ; preds = %8, %5
  %10 = load ptr, ptr %0, align 8, !tbaa !139
  %.not9 = icmp eq ptr %10, null
  br i1 %.not9, label %12, label %11

11:                                               ; preds = %9
  tail call void @sdsfree(ptr noundef nonnull %10) #12
  br label %12

12:                                               ; preds = %11, %9
  ret void
}